target datalayout = "e-m:e-p270:32:32-p271:32:32-p272:64:64-i64:64-i128:128-f80:128-n8:16:32:64-S128"
target triple = "x86_64-pc-linux-gnu"

%struct._e_prefs = type { ptr, i32, %struct.color_t, %struct.color_t, %struct.color_t, %struct.color_t, %struct.color_t, %struct.color_t, %struct.color_t, i8, i32, ptr, i32, %struct.color_t, %struct.color_t, i32, %struct.color_t, %struct.color_t, i32, %struct.color_t, %struct.color_t, %struct.color_t, %struct.color_t, ptr, ptr, i8, i8, i8, i32, i32, i32, ptr, i32, ptr, i8, i8, i8, ptr, ptr, ptr, i32, i32, i32, i32, i8, i32, i32, i32, i32, i32, ptr, i8, i8, i8, i8, i8, ptr, ptr, ptr, ptr, ptr, ptr, ptr, ptr, ptr, i8, i8, i8, i8, i32, i8, i8, i8, ptr, i32, i8, i8, i32, i8, i8, i8, i32, i8, i32, i8, i8, i8, i32, i32, i32, ptr, i8, i8, i8, i8, i8, i8, i32, i32, i8, i8, i8, i8, i32, i32, i32, i32, i8, i8, i32, i8, i8, i32, i32, i8, i8, i8, i32, i8, i8, i8 }
%struct.color_t = type { i16, i16, i16 }

@prefs = global %struct._e_prefs zeroinitializer, align 8
@.str.30 = private unnamed_addr constant [2 x i8] c",\00", align 1

; Function Attrs: null_pointer_is_valid sspstrong uwtable
define zeroext i1 @prefs_capture_device_monitor_mode(ptr noundef %0) #1 {
  %2 = alloca i1, align 1
  %3 = alloca ptr, align 8
  %4 = alloca ptr, align 8
  %5 = alloca ptr, align 8
  %6 = alloca i64, align 8
  %7 = alloca i32, align 4
  store ptr %0, ptr %3, align 8
  call void @llvm.lifetime.start.p0(i64 8, ptr %4) #17
  call void @llvm.lifetime.start.p0(i64 8, ptr %5) #17
  call void @llvm.lifetime.start.p0(i64 8, ptr %6) #17
  %8 = load ptr, ptr getelementptr inbounds nuw (%struct._e_prefs, ptr @prefs, i32 0, i32 60), align 8
  %9 = icmp ne ptr %8, null
  br i1 %9, label %10, label %40

10:                                               ; preds = %1
  %11 = load ptr, ptr %3, align 8
  %12 = icmp ne ptr %11, null
  br i1 %12, label %13, label %40

13:                                               ; preds = %10
  %14 = load ptr, ptr getelementptr inbounds nuw (%struct._e_prefs, ptr @prefs, i32 0, i32 60), align 8
  %15 = call noalias ptr @g_strdup(ptr noundef %14)
  store ptr %15, ptr %5, align 8
  %16 = load ptr, ptr %3, align 8
  %17 = call i64 @strlen(ptr noundef %16) #22
  store i64 %17, ptr %6, align 8
  %18 = load ptr, ptr %5, align 8
  %19 = call ptr @strtok(ptr noundef %18, ptr noundef @.str.30) #17
  store ptr %19, ptr %4, align 8
  br label %20

20:                                               ; preds = %36, %13
  %21 = load ptr, ptr %4, align 8
  %22 = icmp ne ptr %21, null
  br i1 %22, label %23, label %38

23:                                               ; preds = %20
  %24 = load ptr, ptr %4, align 8
  %25 = call i64 @strlen(ptr noundef %24) #22
  %26 = load i64, ptr %6, align 8
  %27 = icmp eq i64 %25, %26
  br i1 %27, label %28, label %35

28:                                               ; preds = %23
  %29 = load ptr, ptr %3, align 8
  %30 = load ptr, ptr %4, align 8
  %31 = call i32 @strcmp(ptr noundef %29, ptr noundef %30) #22
  %32 = icmp eq i32 %31, 0
  br i1 %32, label %33, label %35

33:                                               ; preds = %28
  %34 = load ptr, ptr %5, align 8
  call void @g_free(ptr noundef %34)
  store i1 true, ptr %2, align 1
  store i32 1, ptr %7, align 4
  br label %41

35:                                               ; preds = %28, %23
  br label %36

36:                                               ; preds = %35
  %37 = call ptr @strtok(ptr noundef null, ptr noundef @.str.30) #17
  store ptr %37, ptr %4, align 8
  br label %20, !llvm.loop !35

38:                                               ; preds = %20
  %39 = load ptr, ptr %5, align 8
  call void @g_free(ptr noundef %39)
  br label %40

40:                                               ; preds = %38, %10, %1
  store i1 false, ptr %2, align 1
  store i32 1, ptr %7, align 4
  br label %41

41:                                               ; preds = %40, %33
  call void @llvm.lifetime.end.p0(i64 8, ptr %6) #17
  call void @llvm.lifetime.end.p0(i64 8, ptr %5) #17
  call void @llvm.lifetime.end.p0(i64 8, ptr %4) #17
  %42 = load i1, ptr %2, align 1
  ret i1 %42
}