; Function Attrs: null_pointer_is_valid sspstrong uwtable
define noundef zeroext i1 @prefs_capture_device_monitor_mode(ptr noundef readonly captures(address_is_null) %0) local_unnamed_addr #1 {
  %2 = load ptr, ptr getelementptr inbounds nuw (i8, ptr @prefs, i64 312), align 8
  %3 = icmp ne ptr %2, null
  %4 = icmp ne ptr %0, null
  %or.cond = and i1 %4, %3
  br i1 %or.cond, label %5, label %16

5:                                                ; preds = %1
  %6 = tail call noalias ptr @g_strdup(ptr noundef nonnull %2)
  %7 = tail call i64 @strlen(ptr noundef nonnull dereferenceable(1) %0) #29
  %8 = tail call ptr @strtok(ptr noundef %6, ptr noundef nonnull @.str.30) #25
  %.not14 = icmp eq ptr %8, null
  br i1 %.not14, label %.sink.split, label %.lr.ph

.lr.ph:                                           ; preds = %5, %14
  %.01115 = phi ptr [ %15, %14 ], [ %8, %5 ]
  %9 = tail call i64 @strlen(ptr noundef nonnull dereferenceable(1) %.01115) #29
  %10 = icmp eq i64 %9, %7
  br i1 %10, label %11, label %14

11:                                               ; preds = %.lr.ph
  %12 = tail call i32 @strcmp(ptr noundef nonnull dereferenceable(1) %0, ptr noundef nonnull dereferenceable(1) %.01115) #29
  %13 = icmp eq i32 %12, 0
  br i1 %13, label %.sink.split, label %14

14:                                               ; preds = %.lr.ph, %11
  %15 = tail call ptr @strtok(ptr noundef null, ptr noundef nonnull @.str.30) #25
  %.not = icmp eq ptr %15, null
  br i1 %.not, label %.sink.split, label %.lr.ph, !llvm.loop !41

.sink.split:                                      ; preds = %14, %11, %5
  %.0.ph = phi i1 [ false, %5 ], [ true, %11 ], [ false, %14 ]
  tail call void @g_free(ptr noundef %6)
  br label %16

16:                                               ; preds = %.sink.split, %1
  %.0 = phi i1 [ false, %1 ], [ %.0.ph, %.sink.split ]
  ret i1 %.0
}